; Function Attrs: mustprogress nounwind uwtable
define hidden void @_ZN6hermes5irgen11ESTreeIRGen7genBodyERN4llvh12simple_ilistINS_6ESTree4NodeEJEEE(ptr noundef nonnull align 8 dereferenceable(200) %this, ptr noundef nonnull readonly align 8 dereferenceable(16) %Body) local_unnamed_addr #0 align 2 {
entry:
  %__begin2.sroa.0.0.in4 = getelementptr inbounds nuw i8, ptr %Body, i64 8
  %__begin2.sroa.0.05 = load ptr, ptr %__begin2.sroa.0.0.in4, align 8
  %cmp.i.not6 = icmp eq ptr %__begin2.sroa.0.05, %Body
  br i1 %cmp.i.not6, label %for.end, label %for.body

for.body:                                         ; preds = %entry, %for.body
  %__begin2.sroa.0.07 = phi ptr [ %__begin2.sroa.0.0, %for.body ], [ %__begin2.sroa.0.05, %entry ]
  tail call void @_ZN6hermes5irgen11ESTreeIRGen12genStatementEPNS_6ESTree4NodeENS1_10IsLoopBodyE(ptr noundef nonnull align 8 dereferenceable(200) %this, ptr noundef nonnull %__begin2.sroa.0.07, i32 noundef 0)
  %__begin2.sroa.0.0.in = getelementptr inbounds nuw i8, ptr %__begin2.sroa.0.07, i64 8
  %__begin2.sroa.0.0 = load ptr, ptr %__begin2.sroa.0.0.in, align 8
  %cmp.i.not = icmp eq ptr %__begin2.sroa.0.0, %Body
  br i1 %cmp.i.not, label %for.end, label %for.body

for.end:                                          ; preds = %for.body, %entry
  ret void
}